target datalayout = "e-m:e-p270:32:32-p271:32:32-p272:64:64-i64:64-i128:128-f80:128-n8:16:32:64-S128"
target triple = "x86_64-pc-linux-gnu"

%"class.std::__cxx11::basic_string" = type { %"struct.std::__cxx11::basic_string<char>::_Alloc_hider", i64, %union.anon }
%"struct.std::__cxx11::basic_string<char>::_Alloc_hider" = type { ptr }
%union.anon = type { i64, [8 x i8] }
%"class.glslang::TShader" = type <{ ptr, ptr, i32, [4 x i8], ptr, ptr, ptr, ptr, ptr, ptr, i32, [4 x i8], ptr, %"class.std::__cxx11::basic_string", i32, %"struct.glslang::TEnvironment", i8, [3 x i8] }>
%"struct.glslang::TEnvironment" = type { %"struct.glslang::TInputLanguage", %"struct.glslang::TClient", %"struct.glslang::TTarget" }
%"struct.glslang::TInputLanguage" = type { i32, i32, i32, i32, i8 }
%"struct.glslang::TClient" = type { i32, i32 }
%"struct.glslang::TTarget" = type { i32, i32, i8 }

@.str = private unnamed_addr constant [1 x i8] zeroinitializer, align 1

; Function Attrs: mustprogress nounwind uwtable
define noundef zeroext i1 @_ZN7glslang7TShader5parseEPK16TBuiltInResourcei8EProfilebb11EShMessagesRNS0_8IncluderE(ptr noundef nonnull align 8 dereferenceable(165) %0, ptr noundef %1, i32 noundef %2, i32 noundef %3, i1 noundef zeroext %4, i1 noundef zeroext %5, i32 noundef %6, ptr noundef nonnull align 8 dereferenceable(8) %7) #4 align 2 {
  %9 = alloca ptr, align 8
  %10 = alloca ptr, align 8
  %11 = alloca i32, align 4
  %12 = alloca i32, align 4
  %13 = alloca i8, align 1
  %14 = alloca i8, align 1
  %15 = alloca i32, align 4
  %16 = alloca ptr, align 8
  %17 = alloca %"class.std::__cxx11::basic_string", align 8
  store ptr %0, ptr %9, align 8
  store ptr %1, ptr %10, align 8
  store i32 %2, ptr %11, align 4
  store i32 %3, ptr %12, align 4
  %18 = zext i1 %4 to i8
  store i8 %18, ptr %13, align 1
  %19 = zext i1 %5 to i8
  store i8 %19, ptr %14, align 1
  store i32 %6, ptr %15, align 4
  store ptr %7, ptr %16, align 8
  %20 = load ptr, ptr %9, align 8
  %21 = getelementptr inbounds %"class.glslang::TShader", ptr %20, i32 0, i32 1
  %22 = load ptr, ptr %21, align 8
  call void @_ZN7glslang22SetThreadPoolAllocatorEPNS_14TPoolAllocatorE(ptr noundef %22)
  %23 = getelementptr inbounds %"class.glslang::TShader", ptr %20, i32 0, i32 12
  %24 = load ptr, ptr %23, align 8
  %25 = icmp ne ptr %24, null
  br i1 %25, label %28, label %26

26:                                               ; preds = %8
  %27 = getelementptr inbounds %"class.glslang::TShader", ptr %20, i32 0, i32 12
  store ptr @.str, ptr %27, align 8
  br label %28

28:                                               ; preds = %26, %8
  %29 = getelementptr inbounds %"class.glslang::TShader", ptr %20, i32 0, i32 4
  %30 = load ptr, ptr %29, align 8
  %31 = getelementptr inbounds %"class.glslang::TShader", ptr %20, i32 0, i32 7
  %32 = load ptr, ptr %31, align 8
  %33 = getelementptr inbounds %"class.glslang::TShader", ptr %20, i32 0, i32 10
  %34 = load i32, ptr %33, align 8
  %35 = getelementptr inbounds %"class.glslang::TShader", ptr %20, i32 0, i32 8
  %36 = load ptr, ptr %35, align 8
  %37 = getelementptr inbounds %"class.glslang::TShader", ptr %20, i32 0, i32 9
  %38 = load ptr, ptr %37, align 8
  %39 = getelementptr inbounds %"class.glslang::TShader", ptr %20, i32 0, i32 12
  %40 = load ptr, ptr %39, align 8
  %41 = load ptr, ptr %10, align 8
  %42 = load i32, ptr %11, align 4
  %43 = load i32, ptr %12, align 4
  %44 = load i8, ptr %13, align 1
  %45 = trunc i8 %44 to i1
  %46 = getelementptr inbounds %"class.glslang::TShader", ptr %20, i32 0, i32 14
  %47 = load i32, ptr %46, align 8
  %48 = load i8, ptr %14, align 1
  %49 = trunc i8 %48 to i1
  %50 = load i32, ptr %15, align 4
  %51 = getelementptr inbounds %"class.glslang::TShader", ptr %20, i32 0, i32 5
  %52 = load ptr, ptr %51, align 8
  %53 = load ptr, ptr %16, align 8
  %54 = getelementptr inbounds %"class.glslang::TShader", ptr %20, i32 0, i32 13
  call void @_ZNSt7__cxx1112basic_stringIcSt11char_traitsIcESaIcEEC1ERKS4_(ptr noundef nonnull align 8 dereferenceable(32) %17, ptr noundef nonnull align 8 dereferenceable(32) %54)
  %55 = getelementptr inbounds %"class.glslang::TShader", ptr %20, i32 0, i32 15
  %56 = getelementptr inbounds %"class.glslang::TShader", ptr %20, i32 0, i32 16
  %57 = load i8, ptr %56, align 4
  %58 = trunc i8 %57 to i1
  %59 = call noundef zeroext i1 @_ZN12_GLOBAL__N_115CompileDeferredEP9TCompilerPKPKciPKiS5_S3_20EShOptimizationLevelPK16TBuiltInResourcei8EProfilebib11EShMessagesRN7glslang13TIntermediateERNSE_7TShader8IncluderENSt7__cxx1112basic_stringIcSt11char_traitsIcESaIcEEEPNSE_12TEnvironmentEb(ptr noundef %30, ptr noundef %32, i32 noundef %34, ptr noundef %36, ptr noundef %38, ptr noundef %40, i32 noundef 1, ptr noundef %41, i32 noundef %42, i32 noundef %43, i1 noundef zeroext %45, i32 noundef %47, i1 noundef zeroext %49, i32 noundef %50, ptr noundef nonnull align 8 dereferenceable(2024) %52, ptr noundef nonnull align 8 dereferenceable(8) %53, ptr noundef %17, ptr noundef %55, i1 noundef zeroext %58)
  call void @_ZNSt7__cxx1112basic_stringIcSt11char_traitsIcESaIcEED1Ev(ptr noundef nonnull align 8 dereferenceable(32) %17) #3
  ret i1 %59
}