; Function Attrs: mustprogress nounwind uwtable
define noundef zeroext i1 @_ZN7glslang7TShader5parseEPK16TBuiltInResourcei8EProfilebb11EShMessagesRNS0_8IncluderE(ptr noundef nonnull align 8 dereferenceable(165) %0, ptr noundef %1, i32 noundef %2, i32 noundef %3, i1 noundef zeroext %4, i1 noundef zeroext %5, i32 noundef %6, ptr noundef nonnull align 8 dereferenceable(8) %7) local_unnamed_addr #3 align 2 {
  %9 = alloca %"class.std::__cxx11::basic_string", align 8
  %10 = getelementptr inbounds nuw i8, ptr %0, i64 8
  %11 = load ptr, ptr %10, align 8
  tail call void @_ZN7glslang22SetThreadPoolAllocatorEPNS_14TPoolAllocatorE(ptr noundef %11) #24
  %12 = getelementptr inbounds nuw i8, ptr %0, i64 80
  %13 = load ptr, ptr %12, align 8
  %.not = icmp eq ptr %13, null
  br i1 %.not, label %14, label %15

14:                                               ; preds = %8
  store ptr @.str, ptr %12, align 8
  br label %15

15:                                               ; preds = %14, %8
  %16 = phi ptr [ @.str, %14 ], [ %13, %8 ]
  %17 = getelementptr inbounds nuw i8, ptr %0, i64 24
  %18 = load ptr, ptr %17, align 8
  %19 = getelementptr inbounds nuw i8, ptr %0, i64 48
  %20 = load ptr, ptr %19, align 8
  %21 = getelementptr inbounds nuw i8, ptr %0, i64 72
  %22 = load i32, ptr %21, align 8
  %23 = getelementptr inbounds nuw i8, ptr %0, i64 56
  %24 = load ptr, ptr %23, align 8
  %25 = getelementptr inbounds nuw i8, ptr %0, i64 64
  %26 = load ptr, ptr %25, align 8
  %27 = getelementptr inbounds nuw i8, ptr %0, i64 120
  %28 = load i32, ptr %27, align 8
  %29 = getelementptr inbounds nuw i8, ptr %0, i64 32
  %30 = load ptr, ptr %29, align 8
  %31 = getelementptr inbounds nuw i8, ptr %0, i64 88
  call void @_ZNSt7__cxx1112basic_stringIcSt11char_traitsIcESaIcEEC1ERKS4_(ptr noundef nonnull align 8 dereferenceable(32) %9, ptr noundef nonnull align 8 dereferenceable(32) %31) #24
  %32 = getelementptr inbounds nuw i8, ptr %0, i64 124
  %33 = getelementptr inbounds nuw i8, ptr %0, i64 164
  %34 = load i8, ptr %33, align 4
  %35 = trunc i8 %34 to i1
  %36 = call fastcc noundef zeroext i1 @_ZN12_GLOBAL__N_115CompileDeferredEP9TCompilerPKPKciPKiS5_S3_20EShOptimizationLevelPK16TBuiltInResourcei8EProfilebib11EShMessagesRN7glslang13TIntermediateERNSE_7TShader8IncluderENSt7__cxx1112basic_stringIcSt11char_traitsIcESaIcEEEPNSE_12TEnvironmentEb(ptr noundef %18, ptr noundef %20, i32 noundef %22, ptr noundef %24, ptr noundef %26, ptr noundef nonnull %16, i32 noundef 1, ptr noundef %1, i32 noundef %2, i32 noundef %3, i1 noundef zeroext %4, i32 noundef %28, i1 noundef zeroext %5, i32 noundef %6, ptr noundef nonnull align 8 dereferenceable(2024) %30, ptr noundef nonnull align 8 dereferenceable(8) %7, ptr noundef %9, ptr noundef nonnull %32, i1 noundef zeroext %35)
  call void @_ZNSt7__cxx1112basic_stringIcSt11char_traitsIcESaIcEED1Ev(ptr noundef nonnull align 8 dereferenceable(32) %9) #24
  ret i1 %36
}